target datalayout = "e-m:e-p270:32:32-p271:32:32-p272:64:64-i64:64-i128:128-f80:128-n8:16:32:64-S128"
target triple = "x86_64-pc-linux-gnu"

%struct.cli_ctx_tag = type { ptr, ptr, ptr, ptr, ptr, ptr, ptr, i64, ptr, i32, i32, ptr, i32, i32, ptr, [16 x i8], ptr, ptr, ptr, ptr, ptr, ptr, %struct.timeval, i8, i8 }
%struct.timeval = type { i64, i64 }
%struct.cl_engine = type { i32, i32, i32, [2 x i32], i32, i32, i32, ptr, i32, i64, i32, i32, i64, i64, i32, i32, i32, i32, ptr, ptr, ptr, ptr, ptr, ptr, ptr, ptr, ptr, ptr, ptr, ptr, ptr, ptr, ptr, ptr, ptr, ptr, ptr, i64, ptr, %struct.crtmgr, ptr, ptr, ptr, ptr, ptr, ptr, ptr, ptr, ptr, ptr, ptr, ptr, ptr, ptr, ptr, ptr, ptr, %struct.cli_all_bc, [7 x ptr], [7 x i32], i32, i32, i32, i32, i64, i64, i64, i64, i64, ptr, ptr, ptr, ptr, ptr, ptr, ptr, ptr, ptr, i32, i32, i32, i64, i64, i64, ptr }
%struct.crtmgr = type { ptr, i32 }
%struct.cli_all_bc = type { ptr, i32, ptr, %struct.cli_environment, i32 }
%struct.cli_environment = type { i32, i32, i32, i32, i32, i32, i32, [65 x i8], [65 x i8], [65 x i8], [65 x i8], [65 x i8], [65 x i8], [65 x i8], i8, i8, i8, i8, i8, i8, i8, i8, i8 }
%struct.cli_exe_info = type { ptr, i32, i32, i16, i32, i32, %struct.cli_hashset, i32, i32, i32, i32, i32, i32, i32, i32, i32, %struct.pe_image_file_hdr, %union.anon, [16 x %struct.pe_image_data_dir] }
%struct.cli_hashset = type { ptr, ptr, ptr, i32, i32, i32, i32 }
%struct.pe_image_file_hdr = type { i32, i16, i16, i32, i32, i32, i16, i16 }
%union.anon = type { %struct.pe_image_optional_hdr64 }
%struct.pe_image_optional_hdr64 = type { i16, i8, i8, i32, i32, i32, i32, i32, i64, i32, i32, i16, i16, i16, i16, i16, i16, i32, i32, i32, i32, i16, i16, i64, i64, i64, i64, i32, i32 }
%struct.pe_image_data_dir = type { i32, i32 }
%struct.cli_dconf = type { i32, i32, i32, i32, i32, i32, i32, i32, i32, i32, i32 }
%struct.icon_groupset = type { [2 x [4 x i64]] }
%struct.icon_matcher = type { [2 x ptr], [2 x i32], [3 x ptr], [3 x i32] }

@.str.2 = private unnamed_addr constant [2 x i8] c"*\00", align 1

; Function Attrs: nounwind uwtable
define internal void @cli_icongroupset_init(ptr noundef %0) #0 {
  %2 = alloca ptr, align 8
  store ptr %0, ptr %2, align 8
  %3 = load ptr, ptr %2, align 8
  %4 = getelementptr inbounds %struct.icon_groupset, ptr %3, i32 0, i32 0
  %5 = getelementptr inbounds [2 x [4 x i64]], ptr %4, i64 0, i64 0
  %6 = getelementptr inbounds [4 x i64], ptr %5, i64 0, i64 0
  store i64 0, ptr %6, align 8
  %7 = load ptr, ptr %2, align 8
  %8 = getelementptr inbounds %struct.icon_groupset, ptr %7, i32 0, i32 0
  %9 = getelementptr inbounds [2 x [4 x i64]], ptr %8, i64 0, i64 0
  %10 = getelementptr inbounds [4 x i64], ptr %9, i64 0, i64 1
  store i64 0, ptr %10, align 8
  %11 = load ptr, ptr %2, align 8
  %12 = getelementptr inbounds %struct.icon_groupset, ptr %11, i32 0, i32 0
  %13 = getelementptr inbounds [2 x [4 x i64]], ptr %12, i64 0, i64 0
  %14 = getelementptr inbounds [4 x i64], ptr %13, i64 0, i64 2
  store i64 0, ptr %14, align 8
  %15 = load ptr, ptr %2, align 8
  %16 = getelementptr inbounds %struct.icon_groupset, ptr %15, i32 0, i32 0
  %17 = getelementptr inbounds [2 x [4 x i64]], ptr %16, i64 0, i64 0
  %18 = getelementptr inbounds [4 x i64], ptr %17, i64 0, i64 3
  store i64 0, ptr %18, align 8
  %19 = load ptr, ptr %2, align 8
  %20 = getelementptr inbounds %struct.icon_groupset, ptr %19, i32 0, i32 0
  %21 = getelementptr inbounds [2 x [4 x i64]], ptr %20, i64 0, i64 1
  %22 = getelementptr inbounds [4 x i64], ptr %21, i64 0, i64 0
  store i64 0, ptr %22, align 8
  %23 = load ptr, ptr %2, align 8
  %24 = getelementptr inbounds %struct.icon_groupset, ptr %23, i32 0, i32 0
  %25 = getelementptr inbounds [2 x [4 x i64]], ptr %24, i64 0, i64 1
  %26 = getelementptr inbounds [4 x i64], ptr %25, i64 0, i64 1
  store i64 0, ptr %26, align 8
  %27 = load ptr, ptr %2, align 8
  %28 = getelementptr inbounds %struct.icon_groupset, ptr %27, i32 0, i32 0
  %29 = getelementptr inbounds [2 x [4 x i64]], ptr %28, i64 0, i64 1
  %30 = getelementptr inbounds [4 x i64], ptr %29, i64 0, i64 2
  store i64 0, ptr %30, align 8
  %31 = load ptr, ptr %2, align 8
  %32 = getelementptr inbounds %struct.icon_groupset, ptr %31, i32 0, i32 0
  %33 = getelementptr inbounds [2 x [4 x i64]], ptr %32, i64 0, i64 1
  %34 = getelementptr inbounds [4 x i64], ptr %33, i64 0, i64 3
  store i64 0, ptr %34, align 8
  ret void
}

; Function Attrs: nounwind uwtable
define internal i32 @matchicon(ptr noundef %0, ptr noundef %1, ptr noundef %2, ptr noundef %3) #0 {
  %5 = alloca i32, align 4
  %6 = alloca ptr, align 8
  %7 = alloca ptr, align 8
  %8 = alloca ptr, align 8
  %9 = alloca ptr, align 8
  %10 = alloca %struct.icon_groupset, align 8
  store ptr %0, ptr %6, align 8
  store ptr %1, ptr %7, align 8
  store ptr %2, ptr %8, align 8
  store ptr %3, ptr %9, align 8
  %11 = load ptr, ptr %6, align 8
  %12 = icmp ne ptr %11, null
  br i1 %12, label %13, label %50

13:                                               ; preds = %4
  %14 = load ptr, ptr %6, align 8
  %15 = getelementptr inbounds %struct.cli_ctx_tag, ptr %14, i32 0, i32 6
  %16 = load ptr, ptr %15, align 8
  %17 = icmp ne ptr %16, null
  br i1 %17, label %18, label %50

18:                                               ; preds = %13
  %19 = load ptr, ptr %6, align 8
  %20 = getelementptr inbounds %struct.cli_ctx_tag, ptr %19, i32 0, i32 6
  %21 = load ptr, ptr %20, align 8
  %22 = getelementptr inbounds %struct.cl_engine, ptr %21, i32 0, i32 34
  %23 = load ptr, ptr %22, align 8
  %24 = icmp ne ptr %23, null
  br i1 %24, label %25, label %50

25:                                               ; preds = %18
  %26 = load ptr, ptr %6, align 8
  %27 = getelementptr inbounds %struct.cli_ctx_tag, ptr %26, i32 0, i32 6
  %28 = load ptr, ptr %27, align 8
  %29 = getelementptr inbounds %struct.cl_engine, ptr %28, i32 0, i32 34
  %30 = load ptr, ptr %29, align 8
  %31 = getelementptr inbounds %struct.icon_matcher, ptr %30, i32 0, i32 1
  %32 = getelementptr inbounds [2 x i32], ptr %31, i64 0, i64 0
  %33 = load i32, ptr %32, align 8
  %34 = icmp ne i32 %33, 0
  br i1 %34, label %35, label %50

35:                                               ; preds = %25
  %36 = load ptr, ptr %6, align 8
  %37 = getelementptr inbounds %struct.cli_ctx_tag, ptr %36, i32 0, i32 6
  %38 = load ptr, ptr %37, align 8
  %39 = getelementptr inbounds %struct.cl_engine, ptr %38, i32 0, i32 34
  %40 = load ptr, ptr %39, align 8
  %41 = getelementptr inbounds %struct.icon_matcher, ptr %40, i32 0, i32 1
  %42 = getelementptr inbounds [2 x i32], ptr %41, i64 0, i64 1
  %43 = load i32, ptr %42, align 4
  %44 = icmp ne i32 %43, 0
  br i1 %44, label %45, label %50

45:                                               ; preds = %35
  %46 = load ptr, ptr %7, align 8
  %47 = getelementptr inbounds %struct.cli_exe_info, ptr %46, i32 0, i32 4
  %48 = load i32, ptr %47, align 4
  %49 = icmp ne i32 %48, 0
  br i1 %49, label %51, label %50

50:                                               ; preds = %45, %35, %25, %18, %13, %4
  store i32 0, ptr %5, align 4
  br label %80

51:                                               ; preds = %45
  %52 = load ptr, ptr %6, align 8
  %53 = getelementptr inbounds %struct.cli_ctx_tag, ptr %52, i32 0, i32 16
  %54 = load ptr, ptr %53, align 8
  %55 = getelementptr inbounds %struct.cli_dconf, ptr %54, i32 0, i32 0
  %56 = load i32, ptr %55, align 4
  %57 = and i32 %56, 262144
  %58 = icmp ne i32 %57, 0
  br i1 %58, label %60, label %59

59:                                               ; preds = %51
  store i32 0, ptr %5, align 4
  br label %80

60:                                               ; preds = %51
  call void @cli_icongroupset_init(ptr noundef %10)
  %61 = load ptr, ptr %8, align 8
  %62 = icmp ne ptr %61, null
  br i1 %62, label %63, label %65

63:                                               ; preds = %60
  %64 = load ptr, ptr %8, align 8
  br label %66

65:                                               ; preds = %60
  br label %66

66:                                               ; preds = %65, %63
  %67 = phi ptr [ %64, %63 ], [ @.str.2, %65 ]
  %68 = load ptr, ptr %6, align 8
  call void @cli_icongroupset_add(ptr noundef %67, ptr noundef %10, i32 noundef 0, ptr noundef %68)
  %69 = load ptr, ptr %9, align 8
  %70 = icmp ne ptr %69, null
  br i1 %70, label %71, label %73

71:                                               ; preds = %66
  %72 = load ptr, ptr %9, align 8
  br label %74

73:                                               ; preds = %66
  br label %74

74:                                               ; preds = %73, %71
  %75 = phi ptr [ %72, %71 ], [ @.str.2, %73 ]
  %76 = load ptr, ptr %6, align 8
  call void @cli_icongroupset_add(ptr noundef %75, ptr noundef %10, i32 noundef 1, ptr noundef %76)
  %77 = load ptr, ptr %6, align 8
  %78 = load ptr, ptr %7, align 8
  %79 = call i32 @cli_scanicon(ptr noundef %10, ptr noundef %77, ptr noundef %78)
  store i32 %79, ptr %5, align 4
  br label %80

80:                                               ; preds = %74, %59, %50
  %81 = load i32, ptr %5, align 4
  ret i32 %81
}