; Function Attrs: nounwind uwtable
define internal fastcc i32 @matchicon(ptr noundef %0, ptr noundef %1, ptr noundef %2, ptr noundef %3) unnamed_addr #0 {
  %5 = alloca %struct.icon_groupset, align 8
  %.not = icmp eq ptr %0, null
  br i1 %.not, label %30, label %6

6:                                                ; preds = %4
  %7 = getelementptr inbounds i8, ptr %0, i64 48
  %8 = load ptr, ptr %7, align 8
  %.not18 = icmp eq ptr %8, null
  br i1 %.not18, label %30, label %9

9:                                                ; preds = %6
  %10 = getelementptr inbounds i8, ptr %8, i64 224
  %11 = load ptr, ptr %10, align 8
  %.not19 = icmp eq ptr %11, null
  br i1 %.not19, label %30, label %12

12:                                               ; preds = %9
  %13 = getelementptr inbounds i8, ptr %11, i64 16
  %14 = load i32, ptr %13, align 8
  %.not20 = icmp eq i32 %14, 0
  br i1 %.not20, label %30, label %15

15:                                               ; preds = %12
  %16 = getelementptr inbounds i8, ptr %11, i64 20
  %17 = load i32, ptr %16, align 4
  %.not21 = icmp eq i32 %17, 0
  br i1 %.not21, label %30, label %18

18:                                               ; preds = %15
  %19 = getelementptr inbounds i8, ptr %1, i64 20
  %20 = load i32, ptr %19, align 4
  %.not22 = icmp eq i32 %20, 0
  br i1 %.not22, label %30, label %21

21:                                               ; preds = %18
  %22 = getelementptr inbounds i8, ptr %0, i64 120
  %23 = load ptr, ptr %22, align 8
  %24 = load i32, ptr %23, align 4
  %25 = and i32 %24, 262144
  %.not23 = icmp eq i32 %25, 0
  br i1 %.not23, label %30, label %26

26:                                               ; preds = %21
  call void @llvm.memset.p0.i64(ptr noundef nonnull align 8 dereferenceable(64) %5, i8 0, i64 64, i1 false)
  %.not24 = icmp eq ptr %2, null
  %27 = select i1 %.not24, ptr @.str.2, ptr %2
  call void @cli_icongroupset_add(ptr noundef nonnull %27, ptr noundef nonnull %5, i32 noundef 0, ptr noundef nonnull %0) #12
  %.not25 = icmp eq ptr %3, null
  %28 = select i1 %.not25, ptr @.str.2, ptr %3
  call void @cli_icongroupset_add(ptr noundef nonnull %28, ptr noundef nonnull %5, i32 noundef 1, ptr noundef nonnull %0) #12
  %29 = call i32 @cli_scanicon(ptr noundef nonnull %5, ptr noundef nonnull %0, ptr noundef nonnull %1) #12
  br label %30

30:                                               ; preds = %21, %4, %6, %9, %12, %15, %18, %26
  %.0 = phi i32 [ %29, %26 ], [ 0, %18 ], [ 0, %15 ], [ 0, %12 ], [ 0, %9 ], [ 0, %6 ], [ 0, %4 ], [ 0, %21 ]
  ret i32 %.0
}